target datalayout = "e-m:e-p270:32:32-p271:32:32-p272:64:64-i64:64-i128:128-f80:128-n8:16:32:64-S128"
target triple = "x86_64-pc-linux-gnu"

%struct.rb_data_type_struct = type { ptr, %struct.anon, ptr, ptr, i64 }
%struct.anon = type { ptr, ptr, ptr, ptr, [1 x ptr] }
%struct.rb_io_buffer = type { ptr, i64, i32, i64 }

@rb_io_buffer_type = internal constant %struct.rb_data_type_struct { ptr @.str.108, %struct.anon { ptr @rb_io_buffer_type_mark, ptr @rb_io_buffer_type_free, ptr @rb_io_buffer_type_size, ptr null, [1 x ptr] zeroinitializer }, ptr null, ptr null, i64 35 }, align 8
@rb_eIOBufferInvalidatedError = hidden global i64 0, align 8
@RB_IO_BUFFER_DATA_TYPE_U8 = internal global i64 0, align 8
@.str.119 = private unnamed_addr constant [29 x i8] c"Buffer has been invalidated!\00", align 1

; Function Attrs: nounwind sspstrong uwtable
define internal i32 @io_buffer_validate(ptr noundef %0) #0 {
  %2 = alloca i32, align 4
  %3 = alloca ptr, align 8
  store ptr %0, ptr %3, align 8, !tbaa !11
  %4 = load ptr, ptr %3, align 8, !tbaa !11
  %5 = getelementptr inbounds nuw %struct.rb_io_buffer, ptr %4, i32 0, i32 3
  %6 = load i64, ptr %5, align 8, !tbaa !13
  %7 = icmp ne i64 %6, 4
  br i1 %7, label %8, label %19

8:                                                ; preds = %1
  %9 = load ptr, ptr %3, align 8, !tbaa !11
  %10 = getelementptr inbounds nuw %struct.rb_io_buffer, ptr %9, i32 0, i32 3
  %11 = load i64, ptr %10, align 8, !tbaa !13
  %12 = load ptr, ptr %3, align 8, !tbaa !11
  %13 = getelementptr inbounds nuw %struct.rb_io_buffer, ptr %12, i32 0, i32 0
  %14 = load ptr, ptr %13, align 8, !tbaa !17
  %15 = load ptr, ptr %3, align 8, !tbaa !11
  %16 = getelementptr inbounds nuw %struct.rb_io_buffer, ptr %15, i32 0, i32 1
  %17 = load i64, ptr %16, align 8, !tbaa !19
  %18 = call i32 @io_buffer_validate_slice(i64 noundef %11, ptr noundef %14, i64 noundef %17)
  store i32 %18, ptr %2, align 4
  br label %20

19:                                               ; preds = %1
  store i32 1, ptr %2, align 4
  br label %20

20:                                               ; preds = %19, %8
  %21 = load i32, ptr %2, align 4
  ret i32 %21
}

; Function Attrs: inlinehint nounwind sspstrong willreturn memory(none) uwtable
define internal i64 @RB_INT2FIX(i64 noundef %0) #11 {
  %2 = alloca i64, align 8
  %3 = alloca i64, align 8
  %4 = alloca i64, align 8
  %5 = alloca i64, align 8
  %6 = alloca i64, align 8
  %7 = alloca i64, align 8
  store i64 %0, ptr %2, align 8, !tbaa !20
  call void @llvm.lifetime.start.p0(i64 8, ptr %3) #22
  %8 = load i64, ptr %2, align 8, !tbaa !20
  store i64 %8, ptr %3, align 8, !tbaa !20
  call void @llvm.lifetime.start.p0(i64 8, ptr %4) #22
  %9 = load i64, ptr %3, align 8, !tbaa !20
  %10 = shl i64 %9, 1
  %11 = add i64 %10, 1
  store i64 %11, ptr %4, align 8, !tbaa !20
  call void @llvm.lifetime.start.p0(i64 8, ptr %5) #22
  %12 = load i64, ptr %4, align 8, !tbaa !20
  store i64 %12, ptr %5, align 8, !tbaa !20
  call void @llvm.lifetime.start.p0(i64 8, ptr %6) #22
  %13 = load i64, ptr %5, align 8, !tbaa !20
  store i64 %13, ptr %6, align 8, !tbaa !20
  call void @llvm.lifetime.start.p0(i64 8, ptr %7) #22
  %14 = load i64, ptr %6, align 8, !tbaa !20
  store i64 %14, ptr %7, align 8, !tbaa !20
  %15 = load i64, ptr %7, align 8, !tbaa !20
  call void @llvm.lifetime.end.p0(i64 8, ptr %7) #22
  call void @llvm.lifetime.end.p0(i64 8, ptr %6) #22
  call void @llvm.lifetime.end.p0(i64 8, ptr %5) #22
  call void @llvm.lifetime.end.p0(i64 8, ptr %4) #22
  call void @llvm.lifetime.end.p0(i64 8, ptr %3) #22
  ret i64 %15
}

; Function Attrs: nounwind sspstrong uwtable
define internal void @io_buffer_get_bytes_for_reading(ptr noundef %0, ptr noundef %1, ptr noundef %2) #0 {
  %4 = alloca ptr, align 8
  %5 = alloca ptr, align 8
  %6 = alloca ptr, align 8
  store ptr %0, ptr %4, align 8, !tbaa !11
  store ptr %1, ptr %5, align 8, !tbaa !7
  store ptr %2, ptr %6, align 8, !tbaa !33
  %7 = load ptr, ptr %4, align 8, !tbaa !11
  %8 = call i32 @io_buffer_validate(ptr noundef %7)
  %9 = icmp ne i32 %8, 0
  br i1 %9, label %12, label %10

10:                                               ; preds = %3
  %11 = load i64, ptr @rb_eIOBufferInvalidatedError, align 8, !tbaa !20
  call void (i64, ptr, ...) @rb_raise(i64 noundef %11, ptr noundef @.str.119) #26
  unreachable

12:                                               ; preds = %3
  %13 = load ptr, ptr %4, align 8, !tbaa !11
  %14 = getelementptr inbounds nuw %struct.rb_io_buffer, ptr %13, i32 0, i32 0
  %15 = load ptr, ptr %14, align 8, !tbaa !17
  %16 = icmp ne ptr %15, null
  br i1 %16, label %17, label %26

17:                                               ; preds = %12
  %18 = load ptr, ptr %4, align 8, !tbaa !11
  %19 = getelementptr inbounds nuw %struct.rb_io_buffer, ptr %18, i32 0, i32 0
  %20 = load ptr, ptr %19, align 8, !tbaa !17
  %21 = load ptr, ptr %5, align 8, !tbaa !7
  store ptr %20, ptr %21, align 8, !tbaa !7
  %22 = load ptr, ptr %4, align 8, !tbaa !11
  %23 = getelementptr inbounds nuw %struct.rb_io_buffer, ptr %22, i32 0, i32 1
  %24 = load i64, ptr %23, align 8, !tbaa !19
  %25 = load ptr, ptr %6, align 8, !tbaa !33
  store i64 %24, ptr %25, align 8, !tbaa !20
  br label %29

26:                                               ; preds = %12
  %27 = load ptr, ptr %5, align 8, !tbaa !7
  store ptr null, ptr %27, align 8, !tbaa !7
  %28 = load ptr, ptr %6, align 8, !tbaa !33
  store i64 0, ptr %28, align 8, !tbaa !20
  br label %29

29:                                               ; preds = %26, %17
  ret void
}

; Function Attrs: inlinehint nounwind sspstrong uwtable
define internal i64 @rb_ull2num_inline(i64 noundef %0) #3 {
  %2 = alloca i64, align 8
  %3 = alloca i64, align 8
  store i64 %0, ptr %3, align 8, !tbaa !45
  %4 = load i64, ptr %3, align 8, !tbaa !45
  %5 = icmp ult i64 %4, 4611686018427387904
  br i1 %5, label %6, label %9

6:                                                ; preds = %1
  %7 = load i64, ptr %3, align 8, !tbaa !45
  %8 = call i64 @RB_INT2FIX(i64 noundef %7) #24
  store i64 %8, ptr %2, align 8
  br label %12

9:                                                ; preds = %1
  %10 = load i64, ptr %3, align 8, !tbaa !45
  %11 = call i64 @rb_ull2inum(i64 noundef %10)
  store i64 %11, ptr %2, align 8
  br label %12

12:                                               ; preds = %9, %6
  %13 = load i64, ptr %2, align 8
  ret i64 %13
}

; Function Attrs: nounwind sspstrong uwtable
define dso_local void @rb_io_buffer_get_bytes_for_reading(i64 noundef %0, ptr noundef %1, ptr noundef %2) #0 {
  %4 = alloca i64, align 8
  %5 = alloca ptr, align 8
  %6 = alloca ptr, align 8
  %7 = alloca ptr, align 8
  store i64 %0, ptr %4, align 8, !tbaa !20
  store ptr %1, ptr %5, align 8, !tbaa !7
  store ptr %2, ptr %6, align 8, !tbaa !33
  call void @llvm.lifetime.start.p0(i64 8, ptr %7) #22
  store ptr null, ptr %7, align 8, !tbaa !11
  %8 = load i64, ptr %4, align 8, !tbaa !20
  %9 = call ptr @rb_check_typeddata(i64 noundef %8, ptr noundef @rb_io_buffer_type)
  store ptr %9, ptr %7, align 8, !tbaa !11
  %10 = load ptr, ptr %7, align 8, !tbaa !11
  %11 = load ptr, ptr %5, align 8, !tbaa !7
  %12 = load ptr, ptr %6, align 8, !tbaa !33
  call void @io_buffer_get_bytes_for_reading(ptr noundef %10, ptr noundef %11, ptr noundef %12)
  call void @llvm.lifetime.end.p0(i64 8, ptr %7) #22
  ret void
}

; Function Attrs: nounwind sspstrong uwtable
define internal i64 @io_buffer_each(i32 noundef %0, ptr noundef %1, i64 noundef %2) #0 {
  %4 = alloca i64, align 8
  %5 = alloca i32, align 4
  %6 = alloca ptr, align 8
  %7 = alloca i64, align 8
  %8 = alloca ptr, align 8
  %9 = alloca i64, align 8
  %10 = alloca i64, align 8
  %11 = alloca i64, align 8
  %12 = alloca i64, align 8
  %13 = alloca i64, align 8
  %14 = alloca i64, align 8
  %15 = alloca i64, align 8
  store i32 %0, ptr %5, align 4, !tbaa !32
  store ptr %1, ptr %6, align 8, !tbaa !33
  store i64 %2, ptr %7, align 8, !tbaa !20
  br label %16

16:                                               ; preds = %3
  %17 = call i32 @rb_block_given_p()
  %18 = icmp ne i32 %17, 0
  br i1 %18, label %26, label %19

19:                                               ; preds = %16
  %20 = load i64, ptr %7, align 8, !tbaa !20
  %21 = call i64 @rb_frame_this_func()
  %22 = call i64 @rb_id2sym(i64 noundef %21)
  %23 = load i32, ptr %5, align 4, !tbaa !32
  %24 = load ptr, ptr %6, align 8, !tbaa !33
  %25 = call i64 @rb_enumeratorize_with_size_kw(i64 noundef %20, i64 noundef %22, i32 noundef %23, ptr noundef %24, ptr noundef null, i32 noundef 0)
  store i64 %25, ptr %4, align 8
  br label %65

26:                                               ; preds = %16
  br label %27

27:                                               ; preds = %26
  call void @llvm.lifetime.start.p0(i64 8, ptr %8) #22
  call void @llvm.lifetime.start.p0(i64 8, ptr %9) #22
  %28 = load i64, ptr %7, align 8, !tbaa !20
  call void @rb_io_buffer_get_bytes_for_reading(i64 noundef %28, ptr noundef %8, ptr noundef %9)
  call void @llvm.lifetime.start.p0(i64 8, ptr %10) #22
  %29 = load i32, ptr %5, align 4, !tbaa !32
  %30 = icmp sge i32 %29, 1
  br i1 %30, label %31, label %36

31:                                               ; preds = %27
  %32 = load ptr, ptr %6, align 8, !tbaa !33
  %33 = getelementptr i64, ptr %32, i64 0
  %34 = load i64, ptr %33, align 8, !tbaa !20
  %35 = call i64 @rb_sym2id(i64 noundef %34)
  store i64 %35, ptr %10, align 8, !tbaa !20
  br label %38

36:                                               ; preds = %27
  %37 = load i64, ptr @RB_IO_BUFFER_DATA_TYPE_U8, align 8, !tbaa !20
  store i64 %37, ptr %10, align 8, !tbaa !20
  br label %38

38:                                               ; preds = %36, %31
  call void @llvm.lifetime.start.p0(i64 8, ptr %11) #22
  call void @llvm.lifetime.start.p0(i64 8, ptr %12) #22
  %39 = load i64, ptr %10, align 8, !tbaa !20
  %40 = load i64, ptr %9, align 8, !tbaa !20
  %41 = load i32, ptr %5, align 4, !tbaa !32
  %42 = sub i32 %41, 1
  %43 = load ptr, ptr %6, align 8, !tbaa !33
  %44 = getelementptr i64, ptr %43, i64 1
  call void @io_buffer_extract_offset_count(i64 noundef %39, i64 noundef %40, i32 noundef %42, ptr noundef %44, ptr noundef %11, ptr noundef %12)
  call void @llvm.lifetime.start.p0(i64 8, ptr %13) #22
  store i64 0, ptr %13, align 8, !tbaa !20
  br label %45

45:                                               ; preds = %60, %38
  %46 = load i64, ptr %13, align 8, !tbaa !20
  %47 = load i64, ptr %12, align 8, !tbaa !20
  %48 = icmp ult i64 %46, %47
  br i1 %48, label %50, label %49

49:                                               ; preds = %45
  call void @llvm.lifetime.end.p0(i64 8, ptr %13) #22
  br label %63

50:                                               ; preds = %45
  call void @llvm.lifetime.start.p0(i64 8, ptr %14) #22
  %51 = load i64, ptr %11, align 8, !tbaa !20
  store i64 %51, ptr %14, align 8, !tbaa !20
  call void @llvm.lifetime.start.p0(i64 8, ptr %15) #22
  %52 = load ptr, ptr %8, align 8, !tbaa !7
  %53 = load i64, ptr %9, align 8, !tbaa !20
  %54 = load i64, ptr %10, align 8, !tbaa !20
  %55 = call i64 @rb_io_buffer_get_value(ptr noundef %52, i64 noundef %53, i64 noundef %54, ptr noundef %11)
  store i64 %55, ptr %15, align 8, !tbaa !20
  %56 = load i64, ptr %14, align 8, !tbaa !20
  %57 = call i64 @rb_ull2num_inline(i64 noundef %56)
  %58 = load i64, ptr %15, align 8, !tbaa !20
  %59 = call i64 (i32, ...) @rb_yield_values(i32 noundef 2, i64 noundef %57, i64 noundef %58)
  call void @llvm.lifetime.end.p0(i64 8, ptr %15) #22
  call void @llvm.lifetime.end.p0(i64 8, ptr %14) #22
  br label %60

60:                                               ; preds = %50
  %61 = load i64, ptr %13, align 8, !tbaa !20
  %62 = add i64 %61, 1
  store i64 %62, ptr %13, align 8, !tbaa !20
  br label %45, !llvm.loop !89

63:                                               ; preds = %49
  %64 = load i64, ptr %7, align 8, !tbaa !20
  store i64 %64, ptr %4, align 8
  call void @llvm.lifetime.end.p0(i64 8, ptr %12) #22
  call void @llvm.lifetime.end.p0(i64 8, ptr %11) #22
  call void @llvm.lifetime.end.p0(i64 8, ptr %10) #22
  call void @llvm.lifetime.end.p0(i64 8, ptr %9) #22
  call void @llvm.lifetime.end.p0(i64 8, ptr %8) #22
  br label %65

65:                                               ; preds = %63, %19
  %66 = load i64, ptr %4, align 8
  ret i64 %66
}